; Function Attrs: nounwind uwtable
define void @Pdr_ManCollectCone_rec(ptr noundef %0, ptr noundef captures(none) %1, ptr noundef %2, ptr noundef %3) local_unnamed_addr #0 {
  %5 = getelementptr i8, ptr %0, i64 312
  %.val = load i32, ptr %5, align 8
  %6 = getelementptr i8, ptr %1, i64 32
  %.val20 = load i32, ptr %6, align 8
  %.not = icmp eq i32 %.val20, %.val
  br i1 %.not, label %84, label %7

7:                                                ; preds = %4
  store i32 %.val, ptr %6, align 8
  %8 = getelementptr i8, ptr %1, i64 24
  %.val22 = load i64, ptr %8, align 8
  %9 = and i64 %.val22, 7
  %.not35 = icmp eq i64 %9, 2
  br i1 %.not35, label %10, label %41

10:                                               ; preds = %7
  %11 = getelementptr i8, ptr %1, i64 36
  %.val23 = load i32, ptr %11, align 4
  %12 = getelementptr inbounds nuw i8, ptr %2, i64 4
  %13 = load i32, ptr %12, align 4
  %14 = load i32, ptr %2, align 8
  %15 = icmp eq i32 %13, %14
  br i1 %15, label %16, label %.Vec_IntGrow.exit10_crit_edge.i

.Vec_IntGrow.exit10_crit_edge.i:                  ; preds = %10
  %.phi.trans.insert.i = getelementptr inbounds nuw i8, ptr %2, i64 8
  %.pre.i = load ptr, ptr %.phi.trans.insert.i, align 8
  br label %Vec_IntPush.exit

16:                                               ; preds = %10
  %17 = icmp slt i32 %13, 16
  br i1 %17, label %18, label %26

18:                                               ; preds = %16
  %19 = getelementptr inbounds nuw i8, ptr %2, i64 8
  %20 = load ptr, ptr %19, align 8
  %.not9.i.i = icmp eq ptr %20, null
  br i1 %.not9.i.i, label %23, label %21

21:                                               ; preds = %18
  %22 = tail call dereferenceable_or_null(64) ptr @realloc(ptr noundef nonnull %20, i64 noundef 64) #11
  br label %Vec_IntGrow.exit.i

23:                                               ; preds = %18
  %24 = tail call noalias dereferenceable_or_null(64) ptr @malloc(i64 noundef 64) #12
  br label %Vec_IntGrow.exit.i

Vec_IntGrow.exit.i:                               ; preds = %23, %21
  %25 = phi ptr [ %22, %21 ], [ %24, %23 ]
  store ptr %25, ptr %19, align 8
  store i32 16, ptr %2, align 8
  br label %Vec_IntPush.exit

26:                                               ; preds = %16
  %27 = shl nuw nsw i32 %13, 1
  %28 = getelementptr inbounds nuw i8, ptr %2, i64 8
  %29 = load ptr, ptr %28, align 8
  %.not9.i9.i = icmp eq ptr %29, null
  %30 = zext nneg i32 %27 to i64
  %31 = shl nuw nsw i64 %30, 2
  br i1 %.not9.i9.i, label %34, label %32

32:                                               ; preds = %26
  %33 = tail call ptr @realloc(ptr noundef nonnull %29, i64 noundef %31) #11
  br label %36

34:                                               ; preds = %26
  %35 = tail call noalias ptr @malloc(i64 noundef %31) #12
  br label %36

36:                                               ; preds = %34, %32
  %37 = phi ptr [ %33, %32 ], [ %35, %34 ]
  store ptr %37, ptr %28, align 8
  store i32 %27, ptr %2, align 8
  br label %Vec_IntPush.exit

Vec_IntPush.exit:                                 ; preds = %.Vec_IntGrow.exit10_crit_edge.i, %Vec_IntGrow.exit.i, %36
  %38 = phi ptr [ %.pre.i, %.Vec_IntGrow.exit10_crit_edge.i ], [ %37, %36 ], [ %25, %Vec_IntGrow.exit.i ]
  %39 = load i32, ptr %12, align 4
  %40 = add nsw i32 %39, 1
  store i32 %40, ptr %12, align 4
  br label %.sink.split

41:                                               ; preds = %7
  %42 = getelementptr i8, ptr %1, i64 8
  %.val25 = load ptr, ptr %42, align 8
  %43 = ptrtoint ptr %.val25 to i64
  %44 = and i64 %43, -2
  %45 = inttoptr i64 %44 to ptr
  tail call void @Pdr_ManCollectCone_rec(ptr noundef nonnull %0, ptr noundef %45, ptr noundef %2, ptr noundef %3)
  %.val26 = load i64, ptr %8, align 8
  %46 = and i64 %.val26, 7
  %.not36 = icmp eq i64 %46, 3
  br i1 %.not36, label %84, label %47

47:                                               ; preds = %41
  %48 = getelementptr i8, ptr %1, i64 16
  %.val27 = load ptr, ptr %48, align 8
  %49 = ptrtoint ptr %.val27 to i64
  %50 = and i64 %49, -2
  %51 = inttoptr i64 %50 to ptr
  tail call void @Pdr_ManCollectCone_rec(ptr noundef nonnull %0, ptr noundef %51, ptr noundef %2, ptr noundef %3)
  %52 = getelementptr i8, ptr %1, i64 36
  %.val24 = load i32, ptr %52, align 4
  %53 = getelementptr inbounds nuw i8, ptr %3, i64 4
  %54 = load i32, ptr %53, align 4
  %55 = load i32, ptr %3, align 8
  %56 = icmp eq i32 %54, %55
  br i1 %56, label %57, label %.Vec_IntGrow.exit10_crit_edge.i28

.Vec_IntGrow.exit10_crit_edge.i28:                ; preds = %47
  %.phi.trans.insert.i29 = getelementptr inbounds nuw i8, ptr %3, i64 8
  %.pre.i30 = load ptr, ptr %.phi.trans.insert.i29, align 8
  br label %Vec_IntPush.exit34

57:                                               ; preds = %47
  %58 = icmp slt i32 %54, 16
  br i1 %58, label %59, label %67

59:                                               ; preds = %57
  %60 = getelementptr inbounds nuw i8, ptr %3, i64 8
  %61 = load ptr, ptr %60, align 8
  %.not9.i.i32 = icmp eq ptr %61, null
  br i1 %.not9.i.i32, label %64, label %62

62:                                               ; preds = %59
  %63 = tail call dereferenceable_or_null(64) ptr @realloc(ptr noundef nonnull %61, i64 noundef 64) #11
  br label %Vec_IntGrow.exit.i33

64:                                               ; preds = %59
  %65 = tail call noalias dereferenceable_or_null(64) ptr @malloc(i64 noundef 64) #12
  br label %Vec_IntGrow.exit.i33

Vec_IntGrow.exit.i33:                             ; preds = %64, %62
  %66 = phi ptr [ %63, %62 ], [ %65, %64 ]
  store ptr %66, ptr %60, align 8
  store i32 16, ptr %3, align 8
  br label %Vec_IntPush.exit34

67:                                               ; preds = %57
  %68 = shl nuw nsw i32 %54, 1
  %69 = getelementptr inbounds nuw i8, ptr %3, i64 8
  %70 = load ptr, ptr %69, align 8
  %.not9.i9.i31 = icmp eq ptr %70, null
  %71 = zext nneg i32 %68 to i64
  %72 = shl nuw nsw i64 %71, 2
  br i1 %.not9.i9.i31, label %75, label %73

73:                                               ; preds = %67
  %74 = tail call ptr @realloc(ptr noundef nonnull %70, i64 noundef %72) #11
  br label %77

75:                                               ; preds = %67
  %76 = tail call noalias ptr @malloc(i64 noundef %72) #12
  br label %77

77:                                               ; preds = %75, %73
  %78 = phi ptr [ %74, %73 ], [ %76, %75 ]
  store ptr %78, ptr %69, align 8
  store i32 %68, ptr %3, align 8
  br label %Vec_IntPush.exit34

Vec_IntPush.exit34:                               ; preds = %.Vec_IntGrow.exit10_crit_edge.i28, %Vec_IntGrow.exit.i33, %77
  %79 = phi ptr [ %.pre.i30, %.Vec_IntGrow.exit10_crit_edge.i28 ], [ %78, %77 ], [ %66, %Vec_IntGrow.exit.i33 ]
  %80 = load i32, ptr %53, align 4
  %81 = add nsw i32 %80, 1
  store i32 %81, ptr %53, align 4
  br label %.sink.split

.sink.split:                                      ; preds = %Vec_IntPush.exit, %Vec_IntPush.exit34
  %.sink = phi i32 [ %80, %Vec_IntPush.exit34 ], [ %39, %Vec_IntPush.exit ]
  %.sink37 = phi ptr [ %79, %Vec_IntPush.exit34 ], [ %38, %Vec_IntPush.exit ]
  %.val24.sink = phi i32 [ %.val24, %Vec_IntPush.exit34 ], [ %.val23, %Vec_IntPush.exit ]
  %82 = sext i32 %.sink to i64
  %83 = getelementptr inbounds i32, ptr %.sink37, i64 %82
  store i32 %.val24.sink, ptr %83, align 4
  br label %84

84:                                               ; preds = %.sink.split, %41, %4
  ret void
}